; Function Attrs: mustprogress uwtable
define void @_ZN3net17QuicPacketCreator12SetEncrypterENS_15EncryptionLevelEPNS_13QuicEncrypterE(ptr noundef nonnull align 8 captures(none) dereferenceable(312) initializes((104, 112)) %0, i8 noundef signext %1, ptr noundef %2) local_unnamed_addr #0 align 2 {
  %4 = getelementptr inbounds nuw i8, ptr %0, i64 16
  %5 = load ptr, ptr %4, align 8, !tbaa !44
  tail call void @_ZN3net10QuicFramer12SetEncrypterENS_15EncryptionLevelEPNS_13QuicEncrypterE(ptr noundef nonnull align 8 dereferenceable(408) %5, i8 noundef signext %1, ptr noundef %2)
  %6 = load ptr, ptr %4, align 8, !tbaa !44
  %7 = getelementptr inbounds nuw i8, ptr %0, i64 96
  %8 = load i64, ptr %7, align 8, !tbaa !76
  %9 = tail call noundef i64 @_ZN3net10QuicFramer19GetMaxPlaintextSizeEm(ptr noundef nonnull align 8 dereferenceable(408) %6, i64 noundef %8)
  %10 = getelementptr inbounds nuw i8, ptr %0, i64 104
  store i64 %9, ptr %10, align 8, !tbaa !82
  ret void
}